
kernel.o:     file format elf32-i386


Disassembly of section .text:

00000000 <port_byte_in>:
   0:	55                   	push   %ebp
   1:	89 e5                	mov    %esp,%ebp
   3:	83 ec 14             	sub    $0x14,%esp
   6:	8b 45 08             	mov    0x8(%ebp),%eax
   9:	88 45 ec             	mov    %al,-0x14(%ebp)
   c:	0f b6 45 ec          	movzbl -0x14(%ebp),%eax
  10:	89 c2                	mov    %eax,%edx
  12:	ec                   	in     (%dx),%al
  13:	88 45 ff             	mov    %al,-0x1(%ebp)
  16:	0f b6 45 ff          	movzbl -0x1(%ebp),%eax
  1a:	c9                   	leave  
  1b:	c3                   	ret    

0000001c <port_byte_out>:
  1c:	55                   	push   %ebp
  1d:	89 e5                	mov    %esp,%ebp
  1f:	83 ec 08             	sub    $0x8,%esp
  22:	8b 55 08             	mov    0x8(%ebp),%edx
  25:	8b 45 0c             	mov    0xc(%ebp),%eax
  28:	88 55 fc             	mov    %dl,-0x4(%ebp)
  2b:	88 45 f8             	mov    %al,-0x8(%ebp)
  2e:	90                   	nop
  2f:	c9                   	leave  
  30:	c3                   	ret    

00000031 <port_word_in>:
  31:	55                   	push   %ebp
  32:	89 e5                	mov    %esp,%ebp
  34:	83 ec 14             	sub    $0x14,%esp
  37:	8b 45 08             	mov    0x8(%ebp),%eax
  3a:	66 89 45 ec          	mov    %ax,-0x14(%ebp)
  3e:	0f b7 45 ec          	movzwl -0x14(%ebp),%eax
  42:	89 c2                	mov    %eax,%edx
  44:	66 ed                	in     (%dx),%ax
  46:	66 89 45 fe          	mov    %ax,-0x2(%ebp)
  4a:	0f b7 45 fe          	movzwl -0x2(%ebp),%eax
  4e:	c9                   	leave  
  4f:	c3                   	ret    

00000050 <port_word_out>:
  50:	55                   	push   %ebp
  51:	89 e5                	mov    %esp,%ebp
  53:	83 ec 08             	sub    $0x8,%esp
  56:	8b 55 08             	mov    0x8(%ebp),%edx
  59:	8b 45 0c             	mov    0xc(%ebp),%eax
  5c:	88 55 fc             	mov    %dl,-0x4(%ebp)
  5f:	66 89 45 f8          	mov    %ax,-0x8(%ebp)
  63:	0f b6 45 fc          	movzbl -0x4(%ebp),%eax
  67:	89 c2                	mov    %eax,%edx
  69:	66 ef                	out    %ax,(%dx)
  6b:	66 89 45 f8          	mov    %ax,-0x8(%ebp)
  6f:	90                   	nop
  70:	c9                   	leave  
  71:	c3                   	ret    

00000072 <get_cell_pos>:
  72:	55                   	push   %ebp
  73:	89 e5                	mov    %esp,%ebp
  75:	8b 55 0c             	mov    0xc(%ebp),%edx
  78:	89 d0                	mov    %edx,%eax
  7a:	c1 e0 02             	shl    $0x2,%eax
  7d:	01 d0                	add    %edx,%eax
  7f:	c1 e0 04             	shl    $0x4,%eax
  82:	89 c2                	mov    %eax,%edx
  84:	8b 45 08             	mov    0x8(%ebp),%eax
  87:	01 d0                	add    %edx,%eax
  89:	01 c0                	add    %eax,%eax
  8b:	5d                   	pop    %ebp
  8c:	c3                   	ret    

0000008d <get_cursor>:
  8d:	55                   	push   %ebp
  8e:	89 e5                	mov    %esp,%ebp
  90:	83 ec 10             	sub    $0x10,%esp
  93:	6a 0e                	push   $0xe
  95:	68 d4 00 00 00       	push   $0xd4
  9a:	e8 fc ff ff ff       	call   9b <get_cursor+0xe>
  9f:	83 c4 08             	add    $0x8,%esp
  a2:	68 d5 00 00 00       	push   $0xd5
  a7:	e8 fc ff ff ff       	call   a8 <get_cursor+0x1b>
  ac:	83 c4 04             	add    $0x4,%esp
  af:	0f b6 c0             	movzbl %al,%eax
  b2:	c1 e0 08             	shl    $0x8,%eax
  b5:	89 45 fc             	mov    %eax,-0x4(%ebp)
  b8:	6a 0f                	push   $0xf
  ba:	68 d4 00 00 00       	push   $0xd4
  bf:	e8 fc ff ff ff       	call   c0 <get_cursor+0x33>
  c4:	83 c4 08             	add    $0x8,%esp
  c7:	68 d5 00 00 00       	push   $0xd5
  cc:	e8 fc ff ff ff       	call   cd <get_cursor+0x40>
  d1:	83 c4 04             	add    $0x4,%esp
  d4:	0f b6 c0             	movzbl %al,%eax
  d7:	01 45 fc             	add    %eax,-0x4(%ebp)
  da:	8b 45 fc             	mov    -0x4(%ebp),%eax
  dd:	01 c0                	add    %eax,%eax
  df:	c9                   	leave  
  e0:	c3                   	ret    

000000e1 <set_cursor>:
  e1:	55                   	push   %ebp
  e2:	89 e5                	mov    %esp,%ebp
  e4:	83 ec 04             	sub    $0x4,%esp
  e7:	8b 45 08             	mov    0x8(%ebp),%eax
  ea:	66 89 45 fc          	mov    %ax,-0x4(%ebp)
  ee:	66 c7 45 fc aa 00    	movw   $0xaa,-0x4(%ebp)
  f4:	6a 0f                	push   $0xf
  f6:	68 d4 00 00 00       	push   $0xd4
  fb:	e8 fc ff ff ff       	call   fc <set_cursor+0x1b>
 100:	83 c4 08             	add    $0x8,%esp
 103:	0f b7 45 fc          	movzwl -0x4(%ebp),%eax
 107:	0f b6 c0             	movzbl %al,%eax
 10a:	50                   	push   %eax
 10b:	68 d5 00 00 00       	push   $0xd5
 110:	e8 fc ff ff ff       	call   111 <set_cursor+0x30>
 115:	83 c4 08             	add    $0x8,%esp
 118:	6a 0f                	push   $0xf
 11a:	68 d4 00 00 00       	push   $0xd4
 11f:	e8 fc ff ff ff       	call   120 <set_cursor+0x3f>
 124:	83 c4 08             	add    $0x8,%esp
 127:	0f b7 45 fc          	movzwl -0x4(%ebp),%eax
 12b:	66 c1 e8 08          	shr    $0x8,%ax
 12f:	0f b6 c0             	movzbl %al,%eax
 132:	50                   	push   %eax
 133:	68 d5 00 00 00       	push   $0xd5
 138:	e8 fc ff ff ff       	call   139 <set_cursor+0x58>
 13d:	83 c4 08             	add    $0x8,%esp
 140:	90                   	nop
 141:	c9                   	leave  
 142:	c3                   	ret    

00000143 <print_char>:
 143:	55                   	push   %ebp
 144:	89 e5                	mov    %esp,%ebp
 146:	83 ec 18             	sub    $0x18,%esp
 149:	8b 55 08             	mov    0x8(%ebp),%edx
 14c:	8b 45 14             	mov    0x14(%ebp),%eax
 14f:	88 55 ec             	mov    %dl,-0x14(%ebp)
 152:	88 45 e8             	mov    %al,-0x18(%ebp)
 155:	c7 45 f8 00 80 0b 00 	movl   $0xb8000,-0x8(%ebp)
 15c:	80 7d e8 00          	cmpb   $0x0,-0x18(%ebp)
 160:	75 04                	jne    166 <print_char+0x23>
 162:	c6 45 e8 0f          	movb   $0xf,-0x18(%ebp)
 166:	c7 45 fc 00 00 00 00 	movl   $0x0,-0x4(%ebp)
 16d:	83 7d 10 00          	cmpl   $0x0,0x10(%ebp)
 171:	78 19                	js     18c <print_char+0x49>
 173:	83 7d 0c 00          	cmpl   $0x0,0xc(%ebp)
 177:	78 13                	js     18c <print_char+0x49>
 179:	ff 75 10             	push   0x10(%ebp)
 17c:	ff 75 0c             	push   0xc(%ebp)
 17f:	e8 fc ff ff ff       	call   180 <print_char+0x3d>
 184:	83 c4 08             	add    $0x8,%esp
 187:	89 45 fc             	mov    %eax,-0x4(%ebp)
 18a:	eb 08                	jmp    194 <print_char+0x51>
 18c:	e8 fc ff ff ff       	call   18d <print_char+0x4a>
 191:	89 45 fc             	mov    %eax,-0x4(%ebp)
 194:	8b 55 fc             	mov    -0x4(%ebp),%edx
 197:	8b 45 f8             	mov    -0x8(%ebp),%eax
 19a:	01 c2                	add    %eax,%edx
 19c:	0f b6 45 ec          	movzbl -0x14(%ebp),%eax
 1a0:	88 02                	mov    %al,(%edx)
 1a2:	8b 45 fc             	mov    -0x4(%ebp),%eax
 1a5:	8d 50 01             	lea    0x1(%eax),%edx
 1a8:	8b 45 f8             	mov    -0x8(%ebp),%eax
 1ab:	01 c2                	add    %eax,%edx
 1ad:	0f b6 45 e8          	movzbl -0x18(%ebp),%eax
 1b1:	88 02                	mov    %al,(%edx)
 1b3:	83 45 fc 02          	addl   $0x2,-0x4(%ebp)
 1b7:	8b 45 fc             	mov    -0x4(%ebp),%eax
 1ba:	0f b7 c0             	movzwl %ax,%eax
 1bd:	50                   	push   %eax
 1be:	e8 fc ff ff ff       	call   1bf <print_char+0x7c>
 1c3:	83 c4 04             	add    $0x4,%esp
 1c6:	90                   	nop
 1c7:	c9                   	leave  
 1c8:	c3                   	ret    

000001c9 <main>:
 1c9:	55                   	push   %ebp
 1ca:	89 e5                	mov    %esp,%ebp
 1cc:	b8 0f 00 00 00       	mov    $0xf,%eax
 1d1:	ba d4 03 00 00       	mov    $0x3d4,%edx
 1d6:	ee                   	out    %al,(%dx)
 1d7:	66 ba d5 03          	mov    $0x3d5,%dx
 1db:	66 b8 f1 00          	mov    $0xf1,%ax
 1df:	ee                   	out    %al,(%dx)
 1e0:	90                   	nop
 1e1:	5d                   	pop    %ebp
 1e2:	c3                   	ret    
